CCS PCH C Compiler, Version 5.012, 41559               20-abr.-17 13:01

               Filename:   C:\Users\luis\Documents\4Semestre\Embebidos\SystemasEmbebidos4G\Practica4\mostrandoResultado.lst

               ROM used:   1652 bytes (3%)
                           Largest free fragment is 63884
               RAM used:   5 (0%) at main() level
                           38 (1%) worst case
               Stack used: 2 locations
               Stack size: 31

*
00000:  GOTO   0540
.................... #include <18F4620.h> 
.................... ///////////// Standard Header file for the PIC18F4620 device //////////////// 
.................... /////////////////////////////////////////////////////////////////////////// 
.................... ////        (C) Copyright 1996, 2013 Custom Computer Services          //// 
.................... //// This source code may only be used by licensed users of the CCS C  //// 
.................... //// compiler.  This source code may only be distributed to other      //// 
.................... //// licensed users of the CCS C compiler.  No other use, reproduction //// 
.................... //// or distribution is permitted without written permission.          //// 
.................... //// Derivative programs created using this software in object code    //// 
.................... //// form are not restricted in any way.                               //// 
.................... /////////////////////////////////////////////////////////////////////////// 
.................... #device PIC18F4620 
00004:  DATA 50,72
00006:  DATA 61,63
00008:  DATA 74,69
0000A:  DATA 63,61
0000C:  DATA 20,4E
0000E:  DATA 6F,2E
00010:  DATA 20,34
00012:  DATA 0D,00
00014:  DATA 43,61
00016:  DATA 6C,63
00018:  DATA 75,6C
0001A:  DATA 61,64
0001C:  DATA 6F,72
0001E:  DATA 61,20
00020:  DATA 41,72
00022:  DATA 69,74
00024:  DATA 6D,65
00026:  DATA 74,69
00028:  DATA 63,61
0002A:  DATA 20,0D
0002C:  DATA 0D,00
0002E:  DATA 49,6E
00030:  DATA 67,72
00032:  DATA 65,73
00034:  DATA 61,20
00036:  DATA 65,6C
00038:  DATA 20,70
0003A:  DATA 72,69
0003C:  DATA 6D,65
0003E:  DATA 72,20
00040:  DATA 6F,70
00042:  DATA 65,72
00044:  DATA 61,6E
00046:  DATA 64,6F
00048:  DATA 20,0D
0004A:  DATA 00,00
0004C:  DATA 49,6E
0004E:  DATA 67,72
00050:  DATA 65,73
00052:  DATA 61,20
00054:  DATA 65,6C
00056:  DATA 20,73
00058:  DATA 65,67
0005A:  DATA 75,6E
0005C:  DATA 64,6F
0005E:  DATA 20,6F
00060:  DATA 70,65
00062:  DATA 72,61
00064:  DATA 6E,64
00066:  DATA 6F,20
00068:  DATA 0D,00
0006A:  DATA 53,65
0006C:  DATA 6C,65
0006E:  DATA 63,63
00070:  DATA 69,6F
00072:  DATA 6E,65
00074:  DATA 20,75
00076:  DATA 6E,61
00078:  DATA 20,6F
0007A:  DATA 70,65
0007C:  DATA 72,61
0007E:  DATA 63,69
00080:  DATA 6F,6E
00082:  DATA 3A,20
00084:  DATA 0D,20
00086:  DATA 31,29
00088:  DATA 53,75
0008A:  DATA 6D,61
0008C:  DATA 20,20
0008E:  DATA 32,29
00090:  DATA 52,65
00092:  DATA 73,74
00094:  DATA 61,20
00096:  DATA 20,33
00098:  DATA 29,4D
0009A:  DATA 75,6C
0009C:  DATA 74,69
0009E:  DATA 70,6C
000A0:  DATA 69,63
000A2:  DATA 61,63
000A4:  DATA 69,6F
000A6:  DATA 6E,20
000A8:  DATA 20,34
000AA:  DATA 29,44
000AC:  DATA 69,76
000AE:  DATA 69,73
000B0:  DATA 69,6F
000B2:  DATA 6E,20
000B4:  DATA 0D,00
000B6:  DATA 45,6C
000B8:  DATA 20,72
000BA:  DATA 65,73
000BC:  DATA 75,6C
000BE:  DATA 74,61
000C0:  DATA 64,6F
000C2:  DATA 20,64
000C4:  DATA 65,20
000C6:  DATA 6C,61
000C8:  DATA 20,6F
000CA:  DATA 70,65
000CC:  DATA 72,61
000CE:  DATA 63,69
000D0:  DATA 6F,6E
000D2:  DATA 20,65
000D4:  DATA 73,3A
000D6:  DATA 20,25
000D8:  DATA 66,0D
000DA:  DATA 00,00
*
0011E:  TBLRD*+
00120:  MOVF   FF5,F
00122:  BZ    013C
00124:  MOVFF  FF6,0D
00128:  MOVFF  FF7,0E
0012C:  MOVFF  FF5,1A
00130:  RCALL  00DC
00132:  MOVFF  0D,FF6
00136:  MOVFF  0E,FF7
0013A:  BRA    011E
0013C:  RETURN 0
*
00184:  MOVLW  8E
00186:  MOVWF  00
00188:  MOVFF  0E,01
0018C:  MOVFF  0D,02
00190:  CLRF   03
00192:  MOVF   01,F
00194:  BNZ   01A8
00196:  MOVFF  02,01
0019A:  CLRF   02
0019C:  MOVLW  08
0019E:  SUBWF  00,F
001A0:  MOVF   01,F
001A2:  BNZ   01A8
001A4:  CLRF   00
001A6:  BRA    01B8
001A8:  BCF    FD8.0
001AA:  BTFSC  01.7
001AC:  BRA    01B6
001AE:  RLCF   02,F
001B0:  RLCF   01,F
001B2:  DECF   00,F
001B4:  BRA    01A8
001B6:  BCF    01.7
001B8:  RETURN 0
001BA:  MOVF   0E,W
001BC:  CLRF   01
001BE:  SUBWF  0D,W
001C0:  BC    01C8
001C2:  MOVFF  0D,00
001C6:  BRA    01E0
001C8:  CLRF   00
001CA:  MOVLW  08
001CC:  MOVWF  0F
001CE:  RLCF   0D,F
001D0:  RLCF   00,F
001D2:  MOVF   0E,W
001D4:  SUBWF  00,W
001D6:  BTFSC  FD8.0
001D8:  MOVWF  00
001DA:  RLCF   01,F
001DC:  DECFSZ 0F,F
001DE:  BRA    01CE
001E0:  GOTO   0628 (RETURN)
001E4:  TBLRD*+
001E6:  MOVFF  FF6,0E
001EA:  MOVFF  FF7,0F
001EE:  MOVFF  FF5,1A
001F2:  RCALL  00DC
001F4:  MOVFF  0E,FF6
001F8:  MOVFF  0F,FF7
001FC:  DECFSZ 0D,F
001FE:  BRA    01E4
00200:  GOTO   064E (RETURN)
00204:  MOVF   1A,W
00206:  BTFSC  FD8.2
00208:  BRA    02EC
0020A:  MOVWF  00
0020C:  MOVF   1E,W
0020E:  BTFSC  FD8.2
00210:  BRA    02EC
00212:  ADDWF  00,F
00214:  BNC   021E
00216:  MOVLW  81
00218:  ADDWF  00,F
0021A:  BC    02EC
0021C:  BRA    0226
0021E:  MOVLW  7F
00220:  SUBWF  00,F
00222:  BNC   02EC
00224:  BZ    02EC
00226:  MOVFF  1B,22
0022A:  MOVF   1F,W
0022C:  XORWF  22,F
0022E:  BSF    1B.7
00230:  BSF    1F.7
00232:  MOVF   1D,W
00234:  MULWF  21
00236:  MOVFF  FF4,24
0023A:  MOVF   1C,W
0023C:  MULWF  20
0023E:  MOVFF  FF4,03
00242:  MOVFF  FF3,23
00246:  MULWF  21
00248:  MOVF   FF3,W
0024A:  ADDWF  24,F
0024C:  MOVF   FF4,W
0024E:  ADDWFC 23,F
00250:  MOVLW  00
00252:  ADDWFC 03,F
00254:  MOVF   1D,W
00256:  MULWF  20
00258:  MOVF   FF3,W
0025A:  ADDWF  24,F
0025C:  MOVF   FF4,W
0025E:  ADDWFC 23,F
00260:  MOVLW  00
00262:  CLRF   02
00264:  ADDWFC 03,F
00266:  ADDWFC 02,F
00268:  MOVF   1B,W
0026A:  MULWF  21
0026C:  MOVF   FF3,W
0026E:  ADDWF  23,F
00270:  MOVF   FF4,W
00272:  ADDWFC 03,F
00274:  MOVLW  00
00276:  ADDWFC 02,F
00278:  MOVF   1B,W
0027A:  MULWF  20
0027C:  MOVF   FF3,W
0027E:  ADDWF  03,F
00280:  MOVF   FF4,W
00282:  ADDWFC 02,F
00284:  MOVLW  00
00286:  CLRF   01
00288:  ADDWFC 01,F
0028A:  MOVF   1D,W
0028C:  MULWF  1F
0028E:  MOVF   FF3,W
00290:  ADDWF  23,F
00292:  MOVF   FF4,W
00294:  ADDWFC 03,F
00296:  MOVLW  00
00298:  ADDWFC 02,F
0029A:  ADDWFC 01,F
0029C:  MOVF   1C,W
0029E:  MULWF  1F
002A0:  MOVF   FF3,W
002A2:  ADDWF  03,F
002A4:  MOVF   FF4,W
002A6:  ADDWFC 02,F
002A8:  MOVLW  00
002AA:  ADDWFC 01,F
002AC:  MOVF   1B,W
002AE:  MULWF  1F
002B0:  MOVF   FF3,W
002B2:  ADDWF  02,F
002B4:  MOVF   FF4,W
002B6:  ADDWFC 01,F
002B8:  INCF   00,F
002BA:  BTFSC  01.7
002BC:  BRA    02C8
002BE:  RLCF   23,F
002C0:  RLCF   03,F
002C2:  RLCF   02,F
002C4:  RLCF   01,F
002C6:  DECF   00,F
002C8:  MOVLW  00
002CA:  BTFSS  23.7
002CC:  BRA    02E2
002CE:  INCF   03,F
002D0:  ADDWFC 02,F
002D2:  ADDWFC 01,F
002D4:  MOVF   01,W
002D6:  BNZ   02E2
002D8:  MOVF   02,W
002DA:  BNZ   02E2
002DC:  MOVF   03,W
002DE:  BNZ   02E2
002E0:  INCF   00,F
002E2:  BTFSC  22.7
002E4:  BSF    01.7
002E6:  BTFSS  22.7
002E8:  BCF    01.7
002EA:  BRA    02F4
002EC:  CLRF   00
002EE:  CLRF   01
002F0:  CLRF   02
002F2:  CLRF   03
002F4:  GOTO   03EE (RETURN)
002F8:  MOVF   1A,W
002FA:  SUBLW  B6
002FC:  MOVWF  1A
002FE:  CLRF   03
00300:  MOVFF  1B,1E
00304:  BSF    1B.7
00306:  BCF    FD8.0
00308:  RRCF   1B,F
0030A:  RRCF   1C,F
0030C:  RRCF   1D,F
0030E:  RRCF   03,F
00310:  RRCF   02,F
00312:  RRCF   01,F
00314:  RRCF   00,F
00316:  DECFSZ 1A,F
00318:  BRA    0306
0031A:  BTFSS  1E.7
0031C:  BRA    0334
0031E:  COMF   00,F
00320:  COMF   01,F
00322:  COMF   02,F
00324:  COMF   03,F
00326:  INCF   00,F
00328:  BTFSC  FD8.2
0032A:  INCF   01,F
0032C:  BTFSC  FD8.2
0032E:  INCF   02,F
00330:  BTFSC  FD8.2
00332:  INCF   03,F
00334:  GOTO   0414 (RETURN)
00338:  BTFSC  FD8.1
0033A:  BRA    0342
0033C:  CLRF   FEA
0033E:  MOVLW  22
00340:  MOVWF  FE9
00342:  CLRF   00
00344:  CLRF   01
00346:  CLRF   02
00348:  CLRF   03
0034A:  CLRF   22
0034C:  CLRF   23
0034E:  CLRF   24
00350:  CLRF   25
00352:  MOVF   21,W
00354:  IORWF  20,W
00356:  IORWF  1F,W
00358:  IORWF  1E,W
0035A:  BZ    03B4
0035C:  MOVLW  20
0035E:  MOVWF  26
00360:  BCF    FD8.0
00362:  RLCF   1A,F
00364:  RLCF   1B,F
00366:  RLCF   1C,F
00368:  RLCF   1D,F
0036A:  RLCF   22,F
0036C:  RLCF   23,F
0036E:  RLCF   24,F
00370:  RLCF   25,F
00372:  MOVF   21,W
00374:  SUBWF  25,W
00376:  BNZ   0388
00378:  MOVF   20,W
0037A:  SUBWF  24,W
0037C:  BNZ   0388
0037E:  MOVF   1F,W
00380:  SUBWF  23,W
00382:  BNZ   0388
00384:  MOVF   1E,W
00386:  SUBWF  22,W
00388:  BNC   03A8
0038A:  MOVF   1E,W
0038C:  SUBWF  22,F
0038E:  MOVF   1F,W
00390:  BTFSS  FD8.0
00392:  INCFSZ 1F,W
00394:  SUBWF  23,F
00396:  MOVF   20,W
00398:  BTFSS  FD8.0
0039A:  INCFSZ 20,W
0039C:  SUBWF  24,F
0039E:  MOVF   21,W
003A0:  BTFSS  FD8.0
003A2:  INCFSZ 21,W
003A4:  SUBWF  25,F
003A6:  BSF    FD8.0
003A8:  RLCF   00,F
003AA:  RLCF   01,F
003AC:  RLCF   02,F
003AE:  RLCF   03,F
003B0:  DECFSZ 26,F
003B2:  BRA    0360
003B4:  MOVFF  22,FEF
003B8:  MOVFF  23,FEC
003BC:  MOVFF  24,FEC
003C0:  MOVFF  25,FEC
003C4:  RETURN 0
003C6:  MOVF   FE9,W
003C8:  MOVWF  12
003CA:  MOVF   11,W
003CC:  MOVWF  14
003CE:  BZ    0402
003D0:  MOVFF  10,1D
003D4:  MOVFF  0F,1C
003D8:  MOVFF  0E,1B
003DC:  MOVFF  0D,1A
003E0:  CLRF   21
003E2:  CLRF   20
003E4:  MOVLW  20
003E6:  MOVWF  1F
003E8:  MOVLW  82
003EA:  MOVWF  1E
003EC:  BRA    0204
003EE:  MOVFF  03,10
003F2:  MOVFF  02,0F
003F6:  MOVFF  01,0E
003FA:  MOVFF  00,0D
003FE:  DECFSZ 14,F
00400:  BRA    03D0
00402:  MOVFF  10,1D
00406:  MOVFF  0F,1C
0040A:  MOVFF  0E,1B
0040E:  MOVFF  0D,1A
00412:  BRA    02F8
00414:  MOVFF  03,10
00418:  MOVFF  02,0F
0041C:  MOVFF  01,0E
00420:  MOVFF  00,0D
00424:  BTFSS  10.7
00426:  BRA    0442
00428:  DECF   12,F
0042A:  BSF    12.5
0042C:  COMF   0D,F
0042E:  COMF   0E,F
00430:  COMF   0F,F
00432:  COMF   10,F
00434:  INCF   0D,F
00436:  BTFSC  FD8.2
00438:  INCF   0E,F
0043A:  BTFSC  FD8.2
0043C:  INCF   0F,F
0043E:  BTFSC  FD8.2
00440:  INCF   10,F
00442:  MOVLW  3B
00444:  MOVWF  19
00446:  MOVLW  9A
00448:  MOVWF  18
0044A:  MOVLW  CA
0044C:  MOVWF  17
0044E:  CLRF   16
00450:  MOVLW  0A
00452:  MOVWF  14
00454:  MOVF   11,W
00456:  BTFSC  FD8.2
00458:  INCF   12,F
0045A:  BSF    FD8.1
0045C:  CLRF   FEA
0045E:  MOVLW  0D
00460:  MOVWF  FE9
00462:  MOVFF  10,1D
00466:  MOVFF  0F,1C
0046A:  MOVFF  0E,1B
0046E:  MOVFF  0D,1A
00472:  MOVFF  19,21
00476:  MOVFF  18,20
0047A:  MOVFF  17,1F
0047E:  MOVFF  16,1E
00482:  RCALL  0338
00484:  MOVF   01,W
00486:  MOVF   00,F
00488:  BNZ   04A8
0048A:  INCF   11,W
0048C:  SUBWF  14,W
0048E:  BZ    04A8
00490:  MOVF   12,W
00492:  BZ    04AC
00494:  ANDLW  0F
00496:  SUBWF  14,W
00498:  BZ    049C
0049A:  BC    050A
0049C:  BTFSC  12.7
0049E:  BRA    050A
004A0:  BTFSC  12.6
004A2:  BRA    04AC
004A4:  MOVLW  20
004A6:  BRA    0502
004A8:  MOVLW  20
004AA:  ANDWF  12,F
004AC:  BTFSS  12.5
004AE:  BRA    04C8
004B0:  BCF    12.5
004B2:  MOVF   11,W
004B4:  BTFSS  FD8.2
004B6:  DECF   12,F
004B8:  MOVF   00,W
004BA:  MOVWF  12
004BC:  MOVLW  2D
004BE:  MOVWF  1A
004C0:  RCALL  00DC
004C2:  MOVF   12,W
004C4:  MOVWF  00
004C6:  CLRF   12
004C8:  MOVF   11,W
004CA:  SUBWF  14,W
004CC:  BNZ   04E2
004CE:  MOVF   00,W
004D0:  MOVWF  12
004D2:  MOVLW  2E
004D4:  MOVWF  1A
004D6:  RCALL  00DC
004D8:  MOVF   12,W
004DA:  MOVWF  00
004DC:  MOVLW  20
004DE:  ANDWF  12,F
004E0:  MOVLW  00
004E2:  MOVLW  30
004E4:  BTFSS  12.5
004E6:  BRA    0502
004E8:  BCF    12.5
004EA:  MOVF   11,W
004EC:  BTFSS  FD8.2
004EE:  DECF   12,F
004F0:  MOVF   00,W
004F2:  MOVWF  12
004F4:  MOVLW  2D
004F6:  MOVWF  1A
004F8:  RCALL  00DC
004FA:  MOVF   12,W
004FC:  MOVWF  00
004FE:  CLRF   12
00500:  MOVLW  30
00502:  ADDWF  00,F
00504:  MOVFF  00,1A
00508:  RCALL  00DC
0050A:  BCF    FD8.1
0050C:  MOVFF  19,1D
00510:  MOVFF  18,1C
00514:  MOVFF  17,1B
00518:  MOVFF  16,1A
0051C:  CLRF   21
0051E:  CLRF   20
00520:  CLRF   1F
00522:  MOVLW  0A
00524:  MOVWF  1E
00526:  RCALL  0338
00528:  MOVFF  03,19
0052C:  MOVFF  02,18
00530:  MOVFF  01,17
00534:  MOVFF  00,16
00538:  DECFSZ 14,F
0053A:  BRA    045A
0053C:  GOTO   0668 (RETURN)
....................  
.................... #list 
....................  
.................... #fuses INTRC_IO, NOFCMEN, NOIESO, PUT, NOBROWNOUT, NOWDT  
.................... #fuses NOPBADEN, NOMCLR, STVREN, NOLVP, NODEBUG 
.................... #use delay(clock=16000000) 
.................... #use RS232(UART1,BAUD=9600,BITS=8,PARITY=N,XMIT=PIN_B0,RCV=PIN_B1,STOP=1)   
*
000DC:  BCF    F93.0
000DE:  BCF    F8A.0
000E0:  MOVLW  08
000E2:  MOVWF  01
000E4:  BRA    00E6
000E6:  NOP   
000E8:  BSF    01.7
000EA:  BRA    0108
000EC:  BCF    01.7
000EE:  RRCF   1A,F
000F0:  BTFSC  FD8.0
000F2:  BSF    F8A.0
000F4:  BTFSS  FD8.0
000F6:  BCF    F8A.0
000F8:  BSF    01.6
000FA:  BRA    0108
000FC:  BCF    01.6
000FE:  DECFSZ 01,F
00100:  BRA    00EE
00102:  BRA    0104
00104:  NOP   
00106:  BSF    F8A.0
00108:  MOVLW  84
0010A:  MOVWF  FE9
0010C:  DECFSZ FE9,F
0010E:  BRA    010C
00110:  BRA    0112
00112:  NOP   
00114:  BTFSC  01.7
00116:  BRA    00EC
00118:  BTFSC  01.6
0011A:  BRA    00FC
0011C:  RETURN 0
*
0013E:  BSF    F93.1
00140:  BTFSC  F81.1
00142:  BRA    0140
00144:  MOVLW  08
00146:  MOVWF  00
00148:  CLRF   0D
0014A:  BSF    00.7
0014C:  BRA    016A
0014E:  BCF    00.7
00150:  BRA    016A
00152:  BCF    FD8.0
00154:  BTFSC  F81.1
00156:  BSF    FD8.0
00158:  RRCF   0D,F
0015A:  BSF    00.6
0015C:  BRA    016A
0015E:  BCF    00.6
00160:  DECFSZ 00,F
00162:  BRA    0152
00164:  MOVFF  0D,01
00168:  BRA    0182
0016A:  MOVLW  84
0016C:  BTFSC  00.7
0016E:  MOVLW  24
00170:  MOVWF  01
00172:  DECFSZ 01,F
00174:  BRA    0172
00176:  BRA    0178
00178:  BTFSC  00.7
0017A:  BRA    014E
0017C:  BTFSC  00.6
0017E:  BRA    015E
00180:  BRA    0152
00182:  RETURN 0
.................... #use standard_io(b) 
....................  
.................... void main(void) 
*
00540:  CLRF   FF8
00542:  BCF    FD0.7
00544:  MOVLW  60
00546:  MOVWF  FD3
00548:  MOVLW  40
0054A:  MOVWF  F9B
0054C:  MOVF   FD3,W
0054E:  BCF    F93.0
00550:  BSF    F8A.0
00552:  MOVF   FC1,W
00554:  ANDLW  C0
00556:  IORLW  0F
00558:  MOVWF  FC1
0055A:  MOVLW  07
0055C:  MOVWF  FB4
.................... { 
....................    //Configuraciones 
....................    setup_oscillator(OSC_16MHZ); 
0055E:  MOVLW  60
00560:  MOVWF  FD3
00562:  MOVLW  40
00564:  MOVWF  F9B
00566:  MOVF   FD3,W
....................    //Variables 
....................    int8 primerOperando, segundoOperando, operacion; 
....................    float resultado; 
....................    char opcion; 
....................    //// 
....................    printf("Practica No. 4\r"); 
00568:  MOVLW  04
0056A:  MOVWF  FF6
0056C:  MOVLW  00
0056E:  MOVWF  FF7
00570:  RCALL  011E
....................    printf("Calculadora Aritmetica \r\r"); 
00572:  MOVLW  14
00574:  MOVWF  FF6
00576:  MOVLW  00
00578:  MOVWF  FF7
0057A:  RCALL  011E
....................    printf("Ingresa el primer operando \r"); 
0057C:  MOVLW  2E
0057E:  MOVWF  FF6
00580:  MOVLW  00
00582:  MOVWF  FF7
00584:  RCALL  011E
....................    primerOperando=(getch())-48;; 
00586:  RCALL  013E
00588:  MOVLW  30
0058A:  SUBWF  01,W
0058C:  MOVWF  05
....................    printf("Ingresa el segundo operando \r"); 
0058E:  MOVLW  4C
00590:  MOVWF  FF6
00592:  MOVLW  00
00594:  MOVWF  FF7
00596:  RCALL  011E
....................    segundoOperando=(getch())-48; 
00598:  RCALL  013E
0059A:  MOVLW  30
0059C:  SUBWF  01,W
0059E:  MOVWF  06
....................    printf("Seleccione una operacion: \r 1)Suma  2)Resta  3)Multiplicacion  4)Division \r"); 
005A0:  MOVLW  6A
005A2:  MOVWF  FF6
005A4:  MOVLW  00
005A6:  MOVWF  FF7
005A8:  RCALL  011E
....................    operacion=(getch())-48; 
005AA:  RCALL  013E
005AC:  MOVLW  30
005AE:  SUBWF  01,W
005B0:  MOVWF  07
....................    while(true) 
....................    { 
....................       //Saca resultado con los dos operadores ingresados y deacuerdo a la operación seleccionada 
....................       if(operacion==1)   resultado=primerOperando+segundoOperando;     //suma 
005B2:  DECFSZ 07,W
005B4:  BRA    05D2
005B6:  MOVF   06,W
005B8:  ADDWF  05,W
005BA:  CLRF   0E
005BC:  MOVWF  0D
005BE:  RCALL  0184
005C0:  MOVFF  03,0B
005C4:  MOVFF  02,0A
005C8:  MOVFF  01,09
005CC:  MOVFF  00,08
005D0:  BRA    0640
....................       else if(operacion==2)   resultado=primerOperando-segundoOperando;     //resta 
005D2:  MOVF   07,W
005D4:  SUBLW  02
005D6:  BNZ   05F4
005D8:  MOVF   06,W
005DA:  SUBWF  05,W
005DC:  CLRF   0E
005DE:  MOVWF  0D
005E0:  RCALL  0184
005E2:  MOVFF  03,0B
005E6:  MOVFF  02,0A
005EA:  MOVFF  01,09
005EE:  MOVFF  00,08
005F2:  BRA    0640
....................       else if(operacion==3)   resultado=primerOperando*segundoOperando;     //multiplicacion 
005F4:  MOVF   07,W
005F6:  SUBLW  03
005F8:  BNZ   0618
005FA:  MOVF   05,W
005FC:  MULWF  06
005FE:  MOVF   FF3,W
00600:  CLRF   0E
00602:  MOVWF  0D
00604:  RCALL  0184
00606:  MOVFF  03,0B
0060A:  MOVFF  02,0A
0060E:  MOVFF  01,09
00612:  MOVFF  00,08
00616:  BRA    0640
....................       else if(operacion==4)   resultado=primerOperando/segundoOperando;     //divicion 
00618:  MOVF   07,W
0061A:  SUBLW  04
0061C:  BNZ   0640
0061E:  MOVFF  05,0D
00622:  MOVFF  06,0E
00626:  BRA    01BA
00628:  MOVF   01,W
0062A:  CLRF   0E
0062C:  MOVWF  0D
0062E:  RCALL  0184
00630:  MOVFF  03,0B
00634:  MOVFF  02,0A
00638:  MOVFF  01,09
0063C:  MOVFF  00,08
....................       //Muestra resultado 
....................       printf("El resultado de la operacion es: %f\r",resultado); 
00640:  MOVLW  B6
00642:  MOVWF  FF6
00644:  MOVLW  00
00646:  MOVWF  FF7
00648:  MOVLW  21
0064A:  MOVWF  0D
0064C:  BRA    01E4
0064E:  MOVLW  89
00650:  MOVWF  FE9
00652:  MOVFF  0B,10
00656:  MOVFF  0A,0F
0065A:  MOVFF  09,0E
0065E:  MOVFF  08,0D
00662:  MOVLW  02
00664:  MOVWF  11
00666:  BRA    03C6
00668:  MOVLW  0D
0066A:  MOVWF  1A
0066C:  RCALL  00DC
....................       getch(); //Espera toque de tecla 
0066E:  RCALL  013E
00670:  BRA    05B2
....................    } 
.................... } 
....................   
00672:  SLEEP 

Configuration Fuses:
   Word  1: 0800   INTRC_IO NOFCMEN NOIESO
   Word  2: 1E18   PUT NOBROWNOUT BORV21 NOWDT WDT32768
   Word  3: 0500   CCP2C1 NOPBADEN LPT1OSC NOMCLR
   Word  4: 0081   STVREN NOLVP NOXINST NODEBUG
   Word  5: C00F   NOPROTECT NOCPB NOCPD
   Word  6: E00F   NOWRT NOWRTC NOWRTB NOWRTD
   Word  7: 400F   NOEBTR NOEBTRB
